; Function Attrs: nounwind uwtable
define hidden i32 @_mi_prim_alloc(ptr noundef %0, i64 noundef %1, i64 noundef %2, i1 noundef zeroext %3, i1 noundef zeroext %4, ptr noundef writeonly captures(none) initializes((0, 1)) %5, ptr noundef writeonly captures(none) initializes((0, 1)) %6, ptr noundef writeonly captures(none) initializes((0, 8)) %7) local_unnamed_addr #0 {
  store i8 1, ptr %6, align 1, !tbaa !17
  %9 = select i1 %3, i32 3, i32 0
  %10 = tail call fastcc ptr @unix_mmap(ptr noundef %0, i64 noundef %1, i64 noundef %2, i32 noundef %9, i1 noundef zeroext false, i1 noundef zeroext %4, ptr noundef %5) #13
  store ptr %10, ptr %7, align 8, !tbaa !18
  %.not = icmp eq ptr %10, null
  br i1 %.not, label %11, label %14

11:                                               ; preds = %8
  %12 = tail call ptr @__errno_location() #12
  %13 = load i32, ptr %12, align 4, !tbaa !15
  br label %14

14:                                               ; preds = %8, %11
  %15 = phi i32 [ %13, %11 ], [ 0, %8 ]
  ret i32 %15
}